target datalayout = "e-m:e-p270:32:32-p271:32:32-p272:64:64-i64:64-i128:128-f80:128-n8:16:32:64-S128"
target triple = "x86_64-pc-linux-gnu"

; Function Attrs: mustprogress nounwind uwtable
define noundef i32 @_ZN6casadi9from_fmi2ENS_8TypeFmi2E(i32 noundef %0) #5 {
  %2 = alloca i32, align 4
  %3 = alloca i32, align 4
  store i32 %0, ptr %3, align 4, !tbaa !23
  %4 = load i32, ptr %3, align 4, !tbaa !23
  switch i32 %4, label %10 [
    i32 0, label %5
    i32 1, label %6
    i32 2, label %7
    i32 3, label %8
    i32 4, label %9
  ]

5:                                                ; preds = %1
  store i32 1, ptr %2, align 4
  br label %12

6:                                                ; preds = %1
  store i32 6, ptr %2, align 4
  br label %12

7:                                                ; preds = %1
  store i32 10, ptr %2, align 4
  br label %12

8:                                                ; preds = %1
  store i32 11, ptr %2, align 4
  br label %12

9:                                                ; preds = %1
  store i32 13, ptr %2, align 4
  br label %12

10:                                               ; preds = %1
  br label %11

11:                                               ; preds = %10
  store i32 15, ptr %2, align 4
  br label %12

12:                                               ; preds = %11, %9, %8, %7, %6, %5
  %13 = load i32, ptr %2, align 4
  ret i32 %13
}