; Function Attrs: mustprogress nofree norecurse nosync nounwind willreturn memory(none) uwtable
define noundef range(i32 1, 16) i32 @_ZN6casadi9from_fmi2ENS_8TypeFmi2E(i32 noundef %0) local_unnamed_addr #6 {
  %2 = icmp ult i32 %0, 5
  br i1 %2, label %switch.lookup, label %4

switch.lookup:                                    ; preds = %1
  %3 = zext nneg i32 %0 to i64
  %switch.gep = getelementptr inbounds nuw [5 x i32], ptr @switch.table._ZN6casadi9from_fmi2ENS_8TypeFmi2E, i64 0, i64 %3
  %switch.load = load i32, ptr %switch.gep, align 4
  br label %4

4:                                                ; preds = %1, %switch.lookup
  %.0 = phi i32 [ %switch.load, %switch.lookup ], [ 15, %1 ]
  ret i32 %.0
}